target datalayout = "e-m:e-p270:32:32-p271:32:32-p272:64:64-i64:64-i128:128-f80:128-n8:16:32:64-S128"
target triple = "x86_64-pc-linux-gnu"

@.str.262 = private unnamed_addr constant [9 x i8] c"Reserved\00", align 1
@.str.1728 = private unnamed_addr constant [50 x i8] c"Do not report STA Metrics based on RCPI threshold\00", align 1
@.str.1729 = private unnamed_addr constant [25 x i8] c"RCPI Threshold = %.1fdBm\00", align 1
@.str.1730 = private unnamed_addr constant [23 x i8] c"RCPI Threshold >= 0dBm\00", align 1

; Function Attrs: null_pointer_is_valid sspstrong uwtable
define internal void @rcpi_threshold_custom(ptr noundef %0, i8 noundef zeroext %1) #0 {
  %3 = alloca ptr, align 8
  %4 = alloca i8, align 1
  store ptr %0, ptr %3, align 8
  store i8 %1, ptr %4, align 1
  %5 = load i8, ptr %4, align 1
  %6 = zext i8 %5 to i32
  %7 = icmp eq i32 %6, 0
  br i1 %7, label %8, label %13

8:                                                ; preds = %2
  %9 = load ptr, ptr %3, align 8
  %10 = load ptr, ptr %3, align 8
  %11 = call i64 @llvm.objectsize.i64.p0(ptr %10, i1 false, i1 true, i1 true)
  %12 = call i32 (ptr, i64, i32, i64, ptr, ...) @__snprintf_chk(ptr noundef %9, i64 noundef 240, i32 noundef 2, i64 noundef %11, ptr noundef @.str.1728)
  br label %47

13:                                               ; preds = %2
  %14 = load i8, ptr %4, align 1
  %15 = zext i8 %14 to i32
  %16 = icmp sgt i32 %15, 0
  br i1 %16, label %17, label %31

17:                                               ; preds = %13
  %18 = load i8, ptr %4, align 1
  %19 = zext i8 %18 to i32
  %20 = icmp slt i32 %19, 220
  br i1 %20, label %21, label %31

21:                                               ; preds = %17
  %22 = load ptr, ptr %3, align 8
  %23 = load ptr, ptr %3, align 8
  %24 = call i64 @llvm.objectsize.i64.p0(ptr %23, i1 false, i1 true, i1 true)
  %25 = load i8, ptr %4, align 1
  %26 = uitofp i8 %25 to float
  %27 = fdiv float %26, 2.000000e+00
  %28 = fsub float %27, 1.100000e+02
  %29 = fpext float %28 to double
  %30 = call i32 (ptr, i64, i32, i64, ptr, ...) @__snprintf_chk(ptr noundef %22, i64 noundef 240, i32 noundef 2, i64 noundef %24, ptr noundef @.str.1729, double noundef %29)
  br label %46

31:                                               ; preds = %17, %13
  %32 = load i8, ptr %4, align 1
  %33 = zext i8 %32 to i32
  %34 = icmp eq i32 %33, 220
  br i1 %34, label %35, label %40

35:                                               ; preds = %31
  %36 = load ptr, ptr %3, align 8
  %37 = load ptr, ptr %3, align 8
  %38 = call i64 @llvm.objectsize.i64.p0(ptr %37, i1 false, i1 true, i1 true)
  %39 = call i32 (ptr, i64, i32, i64, ptr, ...) @__snprintf_chk(ptr noundef %36, i64 noundef 240, i32 noundef 2, i64 noundef %38, ptr noundef @.str.1730)
  br label %45

40:                                               ; preds = %31
  %41 = load ptr, ptr %3, align 8
  %42 = load ptr, ptr %3, align 8
  %43 = call i64 @llvm.objectsize.i64.p0(ptr %42, i1 false, i1 true, i1 true)
  %44 = call i32 (ptr, i64, i32, i64, ptr, ...) @__snprintf_chk(ptr noundef %41, i64 noundef 240, i32 noundef 2, i64 noundef %43, ptr noundef @.str.262)
  br label %45

45:                                               ; preds = %40, %35
  br label %46

46:                                               ; preds = %45, %21
  br label %47

47:                                               ; preds = %46, %8
  ret void
}