; Function Attrs: nofree null_pointer_is_valid sspstrong uwtable
define internal void @rcpi_threshold_custom(ptr noundef %0, i8 noundef zeroext %1) #1 {
  %3 = icmp eq i8 %1, 0
  br i1 %3, label %4, label %6

4:                                                ; preds = %2
  %5 = tail call i32 (ptr, i64, i32, i64, ptr, ...) @__snprintf_chk(ptr noundef %0, i64 noundef 240, i32 noundef 2, i64 noundef -1, ptr noundef nonnull @.str.1728)
  br label %20

6:                                                ; preds = %2
  %7 = icmp ult i8 %1, -36
  br i1 %7, label %8, label %14

8:                                                ; preds = %6
  %9 = uitofp i8 %1 to float
  %10 = fmul float %9, 5.000000e-01
  %11 = fadd float %10, -1.100000e+02
  %12 = fpext float %11 to double
  %13 = tail call i32 (ptr, i64, i32, i64, ptr, ...) @__snprintf_chk(ptr noundef %0, i64 noundef 240, i32 noundef 2, i64 noundef -1, ptr noundef nonnull @.str.1729, double noundef %12)
  br label %20

14:                                               ; preds = %6
  %15 = icmp eq i8 %1, -36
  br i1 %15, label %16, label %18

16:                                               ; preds = %14
  %17 = tail call i32 (ptr, i64, i32, i64, ptr, ...) @__snprintf_chk(ptr noundef %0, i64 noundef 240, i32 noundef 2, i64 noundef -1, ptr noundef nonnull @.str.1730)
  br label %20

18:                                               ; preds = %14
  %19 = tail call i32 (ptr, i64, i32, i64, ptr, ...) @__snprintf_chk(ptr noundef %0, i64 noundef 240, i32 noundef 2, i64 noundef -1, ptr noundef nonnull @.str.262)
  br label %20

20:                                               ; preds = %8, %18, %16, %4
  ret void
}